target datalayout = "e-m:e-p270:32:32-p271:32:32-p272:64:64-i64:64-i128:128-f80:128-n8:16:32:64-S128"
target triple = "x86_64-pc-linux-gnu"

@.str.24 = private unnamed_addr constant [26 x i8] c"../openssl/test/destest.c\00", align 1
@.str.28 = private unnamed_addr constant [3 x i8] c"in\00", align 1
@.str.33 = private unnamed_addr constant [2 x i8] c"0\00", align 1
@cbc_key = internal global [8 x i8] c"\01#Eg\89\AB\CD\EF", align 1
@cbc2_key = internal global [8 x i8] c"\F1\E0\D3\C2\B5\A4\97\86", align 1
@test_des_key_wrap_sizes = internal constant [6 x i32] [i32 8, i32 16, i32 24, i32 32, i32 64, i32 80], align 16
@.str.83 = private unnamed_addr constant [9 x i8] c"in_bytes\00", align 1
@.str.84 = private unnamed_addr constant [11 x i8] c"sizeof(in)\00", align 1
@.str.85 = private unnamed_addr constant [51 x i8] c"cipher = EVP_CIPHER_fetch(NULL, \22DES3-WRAP\22, NULL)\00", align 1
@.str.86 = private unnamed_addr constant [10 x i8] c"DES3-WRAP\00", align 1
@.str.87 = private unnamed_addr constant [39 x i8] c"bs = EVP_CIPHER_get_block_size(cipher)\00", align 1
@.str.88 = private unnamed_addr constant [2 x i8] c"8\00", align 1
@.str.89 = private unnamed_addr constant [8 x i8] c"bs * 3u\00", align 1
@.str.90 = private unnamed_addr constant [12 x i8] c"sizeof(key)\00", align 1
@.str.91 = private unnamed_addr constant [19 x i8] c"in_bytes % bs == 0\00", align 1
@.str.92 = private unnamed_addr constant [27 x i8] c"ctx = EVP_CIPHER_CTX_new()\00", align 1
@.str.93 = private unnamed_addr constant [40 x i8] c"EVP_EncryptInit(ctx, cipher, key, NULL)\00", align 1
@.str.94 = private unnamed_addr constant [55 x i8] c"EVP_EncryptUpdate(ctx, c_txt, &clen_upd, in, in_bytes)\00", align 1
@.str.95 = private unnamed_addr constant [9 x i8] c"clen_upd\00", align 1
@.str.96 = private unnamed_addr constant [7 x i8] c"expect\00", align 1
@.str.97 = private unnamed_addr constant [51 x i8] c"EVP_EncryptFinal(ctx, c_txt + clen_upd, &clen_fin)\00", align 1
@.str.98 = private unnamed_addr constant [9 x i8] c"clen_fin\00", align 1
@.str.99 = private unnamed_addr constant [40 x i8] c"EVP_DecryptInit(ctx, cipher, key, NULL)\00", align 1
@.str.100 = private unnamed_addr constant [54 x i8] c"EVP_DecryptUpdate(ctx, p_txt, &plen_upd, c_txt, clen)\00", align 1
@.str.101 = private unnamed_addr constant [51 x i8] c"EVP_DecryptFinal(ctx, p_txt + plen_upd, &plen_fin)\00", align 1
@.str.102 = private unnamed_addr constant [6 x i8] c"p_txt\00", align 1

; Function Attrs: nounwind uwtable
define internal i32 @test_des_key_wrap(i32 noundef %0) #0 {
  %2 = alloca i32, align 4
  %3 = alloca i32, align 4
  %4 = alloca [100 x i8], align 16
  %5 = alloca [200 x i8], align 16
  %6 = alloca [200 x i8], align 16
  %7 = alloca [24 x i8], align 16
  %8 = alloca i32, align 4
  %9 = alloca i32, align 4
  %10 = alloca i32, align 4
  %11 = alloca i32, align 4
  %12 = alloca i32, align 4
  %13 = alloca i32, align 4
  %14 = alloca i32, align 4
  %15 = alloca i32, align 4
  %16 = alloca i32, align 4
  %17 = alloca ptr, align 8
  %18 = alloca ptr, align 8
  %19 = alloca i32, align 4
  store i32 %0, ptr %2, align 4, !tbaa !4
  call void @llvm.lifetime.start.p0(i64 4, ptr %3) #6
  %20 = load i32, ptr %2, align 4, !tbaa !4
  %21 = sext i32 %20 to i64
  %22 = getelementptr inbounds [6 x i32], ptr @test_des_key_wrap_sizes, i64 0, i64 %21
  %23 = load i32, ptr %22, align 4, !tbaa !4
  store i32 %23, ptr %3, align 4, !tbaa !4
  call void @llvm.lifetime.start.p0(i64 100, ptr %4) #6
  call void @llvm.lifetime.start.p0(i64 200, ptr %5) #6
  call void @llvm.lifetime.start.p0(i64 200, ptr %6) #6
  call void @llvm.lifetime.start.p0(i64 24, ptr %7) #6
  call void @llvm.lifetime.start.p0(i64 4, ptr %8) #6
  call void @llvm.lifetime.start.p0(i64 4, ptr %9) #6
  call void @llvm.lifetime.start.p0(i64 4, ptr %10) #6
  call void @llvm.lifetime.start.p0(i64 4, ptr %11) #6
  call void @llvm.lifetime.start.p0(i64 4, ptr %12) #6
  call void @llvm.lifetime.start.p0(i64 4, ptr %13) #6
  call void @llvm.lifetime.start.p0(i64 4, ptr %14) #6
  call void @llvm.lifetime.start.p0(i64 4, ptr %15) #6
  call void @llvm.lifetime.start.p0(i64 4, ptr %16) #6
  call void @llvm.lifetime.start.p0(i64 8, ptr %17) #6
  store ptr null, ptr %17, align 8, !tbaa !15
  call void @llvm.lifetime.start.p0(i64 8, ptr %18) #6
  store ptr null, ptr %18, align 8, !tbaa !18
  call void @llvm.lifetime.start.p0(i64 4, ptr %19) #6
  store i32 0, ptr %19, align 4, !tbaa !4
  %24 = load i32, ptr %3, align 4, !tbaa !4
  %25 = sext i32 %24 to i64
  %26 = call i32 @test_size_t_le(ptr noundef @.str.24, i32 noundef 731, ptr noundef @.str.83, ptr noundef @.str.84, i64 noundef %25, i64 noundef 100)
  %27 = icmp ne i32 %26, 0
  br i1 %27, label %28, label %57

28:                                               ; preds = %1
  %29 = call ptr @EVP_CIPHER_fetch(ptr noundef null, ptr noundef @.str.86, ptr noundef null)
  store ptr %29, ptr %17, align 8, !tbaa !15
  %30 = call i32 @test_ptr(ptr noundef @.str.24, i32 noundef 732, ptr noundef @.str.85, ptr noundef %29)
  %31 = icmp ne i32 %30, 0
  br i1 %31, label %32, label %57

32:                                               ; preds = %28
  %33 = load ptr, ptr %17, align 8, !tbaa !15
  %34 = call i32 @EVP_CIPHER_get_block_size(ptr noundef %33)
  store i32 %34, ptr %15, align 4, !tbaa !4
  %35 = call i32 @test_int_eq(ptr noundef @.str.24, i32 noundef 733, ptr noundef @.str.87, ptr noundef @.str.88, i32 noundef %34, i32 noundef 8)
  %36 = icmp ne i32 %35, 0
  br i1 %36, label %37, label %57

37:                                               ; preds = %32
  %38 = load i32, ptr %15, align 4, !tbaa !4
  %39 = mul i32 %38, 3
  %40 = zext i32 %39 to i64
  %41 = call i32 @test_size_t_eq(ptr noundef @.str.24, i32 noundef 734, ptr noundef @.str.89, ptr noundef @.str.90, i64 noundef %40, i64 noundef 24)
  %42 = icmp ne i32 %41, 0
  br i1 %42, label %43, label %57

43:                                               ; preds = %37
  %44 = load i32, ptr %3, align 4, !tbaa !4
  %45 = load i32, ptr %15, align 4, !tbaa !4
  %46 = srem i32 %44, %45
  %47 = icmp eq i32 %46, 0
  %48 = zext i1 %47 to i32
  %49 = icmp ne i32 %48, 0
  %50 = zext i1 %49 to i32
  %51 = call i32 @test_true(ptr noundef @.str.24, i32 noundef 735, ptr noundef @.str.91, i32 noundef %50)
  %52 = icmp ne i32 %51, 0
  br i1 %52, label %53, label %57

53:                                               ; preds = %43
  %54 = call ptr @EVP_CIPHER_CTX_new()
  store ptr %54, ptr %18, align 8, !tbaa !18
  %55 = call i32 @test_ptr(ptr noundef @.str.24, i32 noundef 736, ptr noundef @.str.92, ptr noundef %54)
  %56 = icmp ne i32 %55, 0
  br i1 %56, label %58, label %57

57:                                               ; preds = %53, %43, %37, %32, %28, %1
  br label %188

58:                                               ; preds = %53
  store i32 0, ptr %16, align 4, !tbaa !4
  br label %59

59:                                               ; preds = %69, %58
  %60 = load i32, ptr %16, align 4, !tbaa !4
  %61 = load i32, ptr %3, align 4, !tbaa !4
  %62 = icmp slt i32 %60, %61
  br i1 %62, label %63, label %72

63:                                               ; preds = %59
  %64 = call i32 @test_random()
  %65 = trunc i32 %64 to i8
  %66 = load i32, ptr %16, align 4, !tbaa !4
  %67 = sext i32 %66 to i64
  %68 = getelementptr inbounds [100 x i8], ptr %4, i64 0, i64 %67
  store i8 %65, ptr %68, align 1, !tbaa !20
  br label %69

69:                                               ; preds = %63
  %70 = load i32, ptr %16, align 4, !tbaa !4
  %71 = add nsw i32 %70, 1
  store i32 %71, ptr %16, align 4, !tbaa !4
  br label %59, !llvm.loop !21

72:                                               ; preds = %59
  %73 = getelementptr inbounds [24 x i8], ptr %7, i64 0, i64 0
  call void @llvm.memcpy.p0.p0.i64(ptr align 16 %73, ptr align 1 @cbc_key, i64 8, i1 false)
  %74 = getelementptr inbounds [24 x i8], ptr %7, i64 0, i64 0
  %75 = getelementptr inbounds nuw i8, ptr %74, i64 8
  call void @llvm.memcpy.p0.p0.i64(ptr align 1 %75, ptr align 1 @cbc2_key, i64 8, i1 false)
  %76 = getelementptr inbounds [24 x i8], ptr %7, i64 0, i64 0
  %77 = getelementptr inbounds nuw i8, ptr %76, i64 8
  %78 = getelementptr inbounds nuw i8, ptr %77, i64 8
  call void @llvm.memcpy.p0.p0.i64(ptr align 1 %78, ptr align 1 @cbc_key, i64 8, i1 false)
  store i32 200, ptr %9, align 4, !tbaa !4
  %79 = load ptr, ptr %18, align 8, !tbaa !18
  %80 = load ptr, ptr %17, align 8, !tbaa !15
  %81 = getelementptr inbounds [24 x i8], ptr %7, i64 0, i64 0
  %82 = call i32 @EVP_EncryptInit(ptr noundef %79, ptr noundef %80, ptr noundef %81, ptr noundef null)
  %83 = icmp ne i32 %82, 0
  %84 = zext i1 %83 to i32
  %85 = call i32 @test_true(ptr noundef @.str.24, i32 noundef 750, ptr noundef @.str.93, i32 noundef %84)
  %86 = icmp ne i32 %85, 0
  br i1 %86, label %87, label %97

87:                                               ; preds = %72
  %88 = load ptr, ptr %18, align 8, !tbaa !18
  %89 = getelementptr inbounds [200 x i8], ptr %5, i64 0, i64 0
  %90 = getelementptr inbounds [100 x i8], ptr %4, i64 0, i64 0
  %91 = load i32, ptr %3, align 4, !tbaa !4
  %92 = call i32 @EVP_EncryptUpdate(ptr noundef %88, ptr noundef %89, ptr noundef %9, ptr noundef %90, i32 noundef %91)
  %93 = icmp ne i32 %92, 0
  %94 = zext i1 %93 to i32
  %95 = call i32 @test_true(ptr noundef @.str.24, i32 noundef 752, ptr noundef @.str.94, i32 noundef %94)
  %96 = icmp ne i32 %95, 0
  br i1 %96, label %98, label %97

97:                                               ; preds = %87, %72
  br label %188

98:                                               ; preds = %87
  %99 = load i32, ptr %3, align 4, !tbaa !4
  %100 = load i32, ptr %15, align 4, !tbaa !4
  %101 = sub nsw i32 %100, 1
  %102 = add nsw i32 %99, %101
  %103 = load i32, ptr %15, align 4, !tbaa !4
  %104 = sdiv i32 %102, %103
  %105 = load i32, ptr %15, align 4, !tbaa !4
  %106 = mul nsw i32 %104, %105
  %107 = load i32, ptr %15, align 4, !tbaa !4
  %108 = mul nsw i32 2, %107
  %109 = add nsw i32 %106, %108
  store i32 %109, ptr %14, align 4, !tbaa !4
  %110 = load i32, ptr %9, align 4, !tbaa !4
  %111 = load i32, ptr %14, align 4, !tbaa !4
  %112 = call i32 @test_int_eq(ptr noundef @.str.24, i32 noundef 756, ptr noundef @.str.95, ptr noundef @.str.96, i32 noundef %110, i32 noundef %111)
  %113 = icmp ne i32 %112, 0
  br i1 %113, label %115, label %114

114:                                              ; preds = %98
  br label %188

115:                                              ; preds = %98
  %116 = load i32, ptr %9, align 4, !tbaa !4
  %117 = sext i32 %116 to i64
  %118 = sub i64 200, %117
  %119 = trunc i64 %118 to i32
  store i32 %119, ptr %10, align 4, !tbaa !4
  %120 = load ptr, ptr %18, align 8, !tbaa !18
  %121 = getelementptr inbounds [200 x i8], ptr %5, i64 0, i64 0
  %122 = load i32, ptr %9, align 4, !tbaa !4
  %123 = sext i32 %122 to i64
  %124 = getelementptr inbounds i8, ptr %121, i64 %123
  %125 = call i32 @EVP_EncryptFinal(ptr noundef %120, ptr noundef %124, ptr noundef %10)
  %126 = icmp ne i32 %125, 0
  %127 = zext i1 %126 to i32
  %128 = call i32 @test_true(ptr noundef @.str.24, i32 noundef 760, ptr noundef @.str.97, i32 noundef %127)
  %129 = icmp ne i32 %128, 0
  br i1 %129, label %130, label %134

130:                                              ; preds = %115
  %131 = load i32, ptr %10, align 4, !tbaa !4
  %132 = call i32 @test_int_eq(ptr noundef @.str.24, i32 noundef 761, ptr noundef @.str.98, ptr noundef @.str.33, i32 noundef %131, i32 noundef 0)
  %133 = icmp ne i32 %132, 0
  br i1 %133, label %135, label %134

134:                                              ; preds = %130, %115
  br label %188

135:                                              ; preds = %130
  %136 = load i32, ptr %9, align 4, !tbaa !4
  %137 = load i32, ptr %10, align 4, !tbaa !4
  %138 = add nsw i32 %136, %137
  store i32 %138, ptr %8, align 4, !tbaa !4
  store i32 200, ptr %12, align 4, !tbaa !4
  %139 = load ptr, ptr %18, align 8, !tbaa !18
  %140 = load ptr, ptr %17, align 8, !tbaa !15
  %141 = getelementptr inbounds [24 x i8], ptr %7, i64 0, i64 0
  %142 = call i32 @EVP_DecryptInit(ptr noundef %139, ptr noundef %140, ptr noundef %141, ptr noundef null)
  %143 = icmp ne i32 %142, 0
  %144 = zext i1 %143 to i32
  %145 = call i32 @test_true(ptr noundef @.str.24, i32 noundef 767, ptr noundef @.str.99, i32 noundef %144)
  %146 = icmp ne i32 %145, 0
  br i1 %146, label %147, label %157

147:                                              ; preds = %135
  %148 = load ptr, ptr %18, align 8, !tbaa !18
  %149 = getelementptr inbounds [200 x i8], ptr %6, i64 0, i64 0
  %150 = getelementptr inbounds [200 x i8], ptr %5, i64 0, i64 0
  %151 = load i32, ptr %8, align 4, !tbaa !4
  %152 = call i32 @EVP_DecryptUpdate(ptr noundef %148, ptr noundef %149, ptr noundef %12, ptr noundef %150, i32 noundef %151)
  %153 = icmp ne i32 %152, 0
  %154 = zext i1 %153 to i32
  %155 = call i32 @test_true(ptr noundef @.str.24, i32 noundef 769, ptr noundef @.str.100, i32 noundef %154)
  %156 = icmp ne i32 %155, 0
  br i1 %156, label %158, label %157

157:                                              ; preds = %147, %135
  br label %188

158:                                              ; preds = %147
  %159 = load i32, ptr %12, align 4, !tbaa !4
  %160 = sext i32 %159 to i64
  %161 = sub i64 200, %160
  %162 = trunc i64 %161 to i32
  store i32 %162, ptr %13, align 4, !tbaa !4
  %163 = load ptr, ptr %18, align 8, !tbaa !18
  %164 = getelementptr inbounds [200 x i8], ptr %6, i64 0, i64 0
  %165 = load i32, ptr %12, align 4, !tbaa !4
  %166 = sext i32 %165 to i64
  %167 = getelementptr inbounds i8, ptr %164, i64 %166
  %168 = call i32 @EVP_DecryptFinal(ptr noundef %163, ptr noundef %167, ptr noundef %13)
  %169 = icmp ne i32 %168, 0
  %170 = zext i1 %169 to i32
  %171 = call i32 @test_true(ptr noundef @.str.24, i32 noundef 772, ptr noundef @.str.101, i32 noundef %170)
  %172 = icmp ne i32 %171, 0
  br i1 %172, label %174, label %173

173:                                              ; preds = %158
  br label %188

174:                                              ; preds = %158
  %175 = load i32, ptr %12, align 4, !tbaa !4
  %176 = load i32, ptr %13, align 4, !tbaa !4
  %177 = add nsw i32 %175, %176
  store i32 %177, ptr %11, align 4, !tbaa !4
  %178 = getelementptr inbounds [100 x i8], ptr %4, i64 0, i64 0
  %179 = load i32, ptr %3, align 4, !tbaa !4
  %180 = sext i32 %179 to i64
  %181 = getelementptr inbounds [200 x i8], ptr %6, i64 0, i64 0
  %182 = load i32, ptr %11, align 4, !tbaa !4
  %183 = sext i32 %182 to i64
  %184 = call i32 @test_mem_eq(ptr noundef @.str.24, i32 noundef 776, ptr noundef @.str.28, ptr noundef @.str.102, ptr noundef %178, i64 noundef %180, ptr noundef %181, i64 noundef %183)
  %185 = icmp ne i32 %184, 0
  br i1 %185, label %187, label %186

186:                                              ; preds = %174
  br label %188

187:                                              ; preds = %174
  store i32 1, ptr %19, align 4, !tbaa !4
  br label %188

188:                                              ; preds = %187, %186, %173, %157, %134, %114, %97, %57
  %189 = load ptr, ptr %17, align 8, !tbaa !15
  call void @EVP_CIPHER_free(ptr noundef %189)
  %190 = load ptr, ptr %18, align 8, !tbaa !18
  call void @EVP_CIPHER_CTX_free(ptr noundef %190)
  %191 = load i32, ptr %19, align 4, !tbaa !4
  call void @llvm.lifetime.end.p0(i64 4, ptr %19) #6
  call void @llvm.lifetime.end.p0(i64 8, ptr %18) #6
  call void @llvm.lifetime.end.p0(i64 8, ptr %17) #6
  call void @llvm.lifetime.end.p0(i64 4, ptr %16) #6
  call void @llvm.lifetime.end.p0(i64 4, ptr %15) #6
  call void @llvm.lifetime.end.p0(i64 4, ptr %14) #6
  call void @llvm.lifetime.end.p0(i64 4, ptr %13) #6
  call void @llvm.lifetime.end.p0(i64 4, ptr %12) #6
  call void @llvm.lifetime.end.p0(i64 4, ptr %11) #6
  call void @llvm.lifetime.end.p0(i64 4, ptr %10) #6
  call void @llvm.lifetime.end.p0(i64 4, ptr %9) #6
  call void @llvm.lifetime.end.p0(i64 4, ptr %8) #6
  call void @llvm.lifetime.end.p0(i64 24, ptr %7) #6
  call void @llvm.lifetime.end.p0(i64 200, ptr %6) #6
  call void @llvm.lifetime.end.p0(i64 200, ptr %5) #6
  call void @llvm.lifetime.end.p0(i64 100, ptr %4) #6
  call void @llvm.lifetime.end.p0(i64 4, ptr %3) #6
  ret i32 %191
}