; Function Attrs: nounwind uwtable
define internal range(i32 0, 2) i32 @test_des_key_wrap(i32 noundef %0) #0 {
  %2 = alloca [100 x i8], align 16
  %3 = alloca [200 x i8], align 16
  %4 = alloca [200 x i8], align 16
  %5 = alloca [24 x i8], align 16
  %6 = alloca i32, align 4
  %7 = alloca i32, align 4
  %8 = alloca i32, align 4
  %9 = alloca i32, align 4
  %10 = sext i32 %0 to i64
  %11 = getelementptr inbounds [6 x i32], ptr @test_des_key_wrap_sizes, i64 0, i64 %10
  %12 = load i32, ptr %11, align 4, !tbaa !9
  %.fr = freeze i32 %12
  call void @llvm.lifetime.start.p0(i64 100, ptr nonnull %2) #6
  call void @llvm.lifetime.start.p0(i64 200, ptr nonnull %3) #6
  call void @llvm.lifetime.start.p0(i64 200, ptr nonnull %4) #6
  call void @llvm.lifetime.start.p0(i64 24, ptr nonnull %5) #6
  call void @llvm.lifetime.start.p0(i64 4, ptr nonnull %6) #6
  call void @llvm.lifetime.start.p0(i64 4, ptr nonnull %7) #6
  call void @llvm.lifetime.start.p0(i64 4, ptr nonnull %8) #6
  call void @llvm.lifetime.start.p0(i64 4, ptr nonnull %9) #6
  %13 = sext i32 %.fr to i64
  %14 = tail call i32 @test_size_t_le(ptr noundef nonnull @.str.24, i32 noundef 731, ptr noundef nonnull @.str.83, ptr noundef nonnull @.str.84, i64 noundef %13, i64 noundef 100) #6
  %.not = icmp eq i32 %14, 0
  br i1 %.not, label %98, label %15

15:                                               ; preds = %1
  %16 = tail call ptr @EVP_CIPHER_fetch(ptr noundef null, ptr noundef nonnull @.str.86, ptr noundef null) #6
  %17 = tail call i32 @test_ptr(ptr noundef nonnull @.str.24, i32 noundef 732, ptr noundef nonnull @.str.85, ptr noundef %16) #6
  %.not34 = icmp eq i32 %17, 0
  br i1 %.not34, label %98, label %18

18:                                               ; preds = %15
  %19 = tail call i32 @EVP_CIPHER_get_block_size(ptr noundef %16) #6
  %20 = tail call i32 @test_int_eq(ptr noundef nonnull @.str.24, i32 noundef 733, ptr noundef nonnull @.str.87, ptr noundef nonnull @.str.88, i32 noundef %19, i32 noundef 8) #6
  %.not35 = icmp eq i32 %20, 0
  br i1 %.not35, label %98, label %21

21:                                               ; preds = %18
  %22 = mul i32 %19, 3
  %23 = zext i32 %22 to i64
  %24 = tail call i32 @test_size_t_eq(ptr noundef nonnull @.str.24, i32 noundef 734, ptr noundef nonnull @.str.89, ptr noundef nonnull @.str.90, i64 noundef %23, i64 noundef 24) #6
  %.not36 = icmp eq i32 %24, 0
  br i1 %.not36, label %98, label %25

25:                                               ; preds = %21
  %26 = srem i32 %.fr, %19
  %27 = icmp eq i32 %26, 0
  %28 = zext i1 %27 to i32
  %29 = tail call i32 @test_true(ptr noundef nonnull @.str.24, i32 noundef 735, ptr noundef nonnull @.str.91, i32 noundef %28) #6
  %.not37 = icmp eq i32 %29, 0
  br i1 %.not37, label %98, label %30

30:                                               ; preds = %25
  %31 = tail call ptr @EVP_CIPHER_CTX_new() #6
  %32 = tail call i32 @test_ptr(ptr noundef nonnull @.str.24, i32 noundef 736, ptr noundef nonnull @.str.92, ptr noundef %31) #6
  %.not38 = icmp eq i32 %32, 0
  br i1 %.not38, label %98, label %.lr.ph.preheader

.lr.ph.preheader:                                 ; preds = %30
  %smax = tail call i32 @llvm.smax.i32(i32 %.fr, i32 1)
  %wide.trip.count = zext nneg i32 %smax to i64
  br label %.lr.ph

.lr.ph:                                           ; preds = %.lr.ph.preheader, %.lr.ph
  %indvars.iv = phi i64 [ 0, %.lr.ph.preheader ], [ %indvars.iv.next, %.lr.ph ]
  %33 = tail call i32 @test_random() #6
  %34 = trunc i32 %33 to i8
  %35 = getelementptr inbounds nuw [100 x i8], ptr %2, i64 0, i64 %indvars.iv
  store i8 %34, ptr %35, align 1, !tbaa !4
  %indvars.iv.next = add nuw nsw i64 %indvars.iv, 1
  %exitcond.not = icmp eq i64 %indvars.iv.next, %wide.trip.count
  br i1 %exitcond.not, label %._crit_edge, label %.lr.ph, !llvm.loop !15

._crit_edge:                                      ; preds = %.lr.ph
  %36 = load i64, ptr @cbc_key, align 8
  store i64 %36, ptr %5, align 16
  %37 = getelementptr inbounds nuw i8, ptr %5, i64 8
  %38 = load i64, ptr @cbc2_key, align 8
  store i64 %38, ptr %37, align 8
  %39 = getelementptr inbounds nuw i8, ptr %5, i64 16
  store i64 %36, ptr %39, align 16
  store i32 200, ptr %6, align 4, !tbaa !9
  %40 = call i32 @EVP_EncryptInit(ptr noundef %31, ptr noundef %16, ptr noundef nonnull %5, ptr noundef null) #6
  %41 = icmp ne i32 %40, 0
  %42 = zext i1 %41 to i32
  %43 = call i32 @test_true(ptr noundef nonnull @.str.24, i32 noundef 750, ptr noundef nonnull @.str.93, i32 noundef %42) #6
  %.not39 = icmp eq i32 %43, 0
  br i1 %.not39, label %98, label %44

44:                                               ; preds = %._crit_edge
  %45 = call i32 @EVP_EncryptUpdate(ptr noundef %31, ptr noundef nonnull %3, ptr noundef nonnull %6, ptr noundef nonnull %2, i32 noundef %.fr) #6
  %46 = icmp ne i32 %45, 0
  %47 = zext i1 %46 to i32
  %48 = call i32 @test_true(ptr noundef nonnull @.str.24, i32 noundef 752, ptr noundef nonnull @.str.94, i32 noundef %47) #6
  %.not40 = icmp eq i32 %48, 0
  br i1 %.not40, label %98, label %49

49:                                               ; preds = %44
  %50 = add i32 %.fr, -1
  %51 = add i32 %50, %19
  %52 = srem i32 %51, %19
  %53 = shl nsw i32 %19, 1
  %54 = add i32 %51, %53
  %55 = sub i32 %54, %52
  %56 = load i32, ptr %6, align 4, !tbaa !9
  %57 = call i32 @test_int_eq(ptr noundef nonnull @.str.24, i32 noundef 756, ptr noundef nonnull @.str.95, ptr noundef nonnull @.str.96, i32 noundef %56, i32 noundef %55) #6
  %.not41 = icmp eq i32 %57, 0
  br i1 %.not41, label %98, label %58

58:                                               ; preds = %49
  %59 = load i32, ptr %6, align 4, !tbaa !9
  %60 = sub i32 200, %59
  store i32 %60, ptr %7, align 4, !tbaa !9
  %61 = sext i32 %59 to i64
  %62 = getelementptr inbounds i8, ptr %3, i64 %61
  %63 = call i32 @EVP_EncryptFinal(ptr noundef %31, ptr noundef nonnull %62, ptr noundef nonnull %7) #6
  %64 = icmp ne i32 %63, 0
  %65 = zext i1 %64 to i32
  %66 = call i32 @test_true(ptr noundef nonnull @.str.24, i32 noundef 760, ptr noundef nonnull @.str.97, i32 noundef %65) #6
  %.not42 = icmp eq i32 %66, 0
  br i1 %.not42, label %98, label %67

67:                                               ; preds = %58
  %68 = load i32, ptr %7, align 4, !tbaa !9
  %69 = call i32 @test_int_eq(ptr noundef nonnull @.str.24, i32 noundef 761, ptr noundef nonnull @.str.98, ptr noundef nonnull @.str.33, i32 noundef %68, i32 noundef 0) #6
  %.not43 = icmp eq i32 %69, 0
  br i1 %.not43, label %98, label %70

70:                                               ; preds = %67
  %71 = load i32, ptr %6, align 4, !tbaa !9
  %72 = load i32, ptr %7, align 4, !tbaa !9
  store i32 200, ptr %8, align 4, !tbaa !9
  %73 = call i32 @EVP_DecryptInit(ptr noundef %31, ptr noundef %16, ptr noundef nonnull %5, ptr noundef null) #6
  %74 = icmp ne i32 %73, 0
  %75 = zext i1 %74 to i32
  %76 = call i32 @test_true(ptr noundef nonnull @.str.24, i32 noundef 767, ptr noundef nonnull @.str.99, i32 noundef %75) #6
  %.not44 = icmp eq i32 %76, 0
  br i1 %.not44, label %98, label %77

77:                                               ; preds = %70
  %78 = add nsw i32 %72, %71
  %79 = call i32 @EVP_DecryptUpdate(ptr noundef %31, ptr noundef nonnull %4, ptr noundef nonnull %8, ptr noundef nonnull %3, i32 noundef %78) #6
  %80 = icmp ne i32 %79, 0
  %81 = zext i1 %80 to i32
  %82 = call i32 @test_true(ptr noundef nonnull @.str.24, i32 noundef 769, ptr noundef nonnull @.str.100, i32 noundef %81) #6
  %.not45 = icmp eq i32 %82, 0
  br i1 %.not45, label %98, label %83

83:                                               ; preds = %77
  %84 = load i32, ptr %8, align 4, !tbaa !9
  %85 = sub i32 200, %84
  store i32 %85, ptr %9, align 4, !tbaa !9
  %86 = sext i32 %84 to i64
  %87 = getelementptr inbounds i8, ptr %4, i64 %86
  %88 = call i32 @EVP_DecryptFinal(ptr noundef %31, ptr noundef nonnull %87, ptr noundef nonnull %9) #6
  %89 = icmp ne i32 %88, 0
  %90 = zext i1 %89 to i32
  %91 = call i32 @test_true(ptr noundef nonnull @.str.24, i32 noundef 772, ptr noundef nonnull @.str.101, i32 noundef %90) #6
  %.not46 = icmp eq i32 %91, 0
  br i1 %.not46, label %98, label %92

92:                                               ; preds = %83
  %93 = load i32, ptr %8, align 4, !tbaa !9
  %94 = load i32, ptr %9, align 4, !tbaa !9
  %95 = add nsw i32 %94, %93
  %96 = sext i32 %95 to i64
  %97 = call i32 @test_mem_eq(ptr noundef nonnull @.str.24, i32 noundef 776, ptr noundef nonnull @.str.28, ptr noundef nonnull @.str.102, ptr noundef nonnull %2, i64 noundef %13, ptr noundef nonnull %4, i64 noundef %96) #6
  %.not47 = icmp ne i32 %97, 0
  %spec.select = zext i1 %.not47 to i32
  br label %98

98:                                               ; preds = %92, %83, %70, %77, %58, %67, %49, %._crit_edge, %44, %1, %15, %18, %21, %25, %30
  %.031 = phi ptr [ %16, %83 ], [ %16, %77 ], [ %16, %70 ], [ %16, %67 ], [ %16, %58 ], [ %16, %49 ], [ %16, %44 ], [ %16, %._crit_edge ], [ %16, %30 ], [ %16, %25 ], [ %16, %21 ], [ %16, %18 ], [ %16, %15 ], [ null, %1 ], [ %16, %92 ]
  %.030 = phi ptr [ %31, %83 ], [ %31, %77 ], [ %31, %70 ], [ %31, %67 ], [ %31, %58 ], [ %31, %49 ], [ %31, %44 ], [ %31, %._crit_edge ], [ %31, %30 ], [ null, %25 ], [ null, %21 ], [ null, %18 ], [ null, %15 ], [ null, %1 ], [ %31, %92 ]
  %.0 = phi i32 [ 0, %83 ], [ 0, %77 ], [ 0, %70 ], [ 0, %67 ], [ 0, %58 ], [ 0, %49 ], [ 0, %44 ], [ 0, %._crit_edge ], [ 0, %30 ], [ 0, %25 ], [ 0, %21 ], [ 0, %18 ], [ 0, %15 ], [ 0, %1 ], [ %spec.select, %92 ]
  call void @EVP_CIPHER_free(ptr noundef %.031) #6
  call void @EVP_CIPHER_CTX_free(ptr noundef %.030) #6
  call void @llvm.lifetime.end.p0(i64 4, ptr nonnull %9) #6
  call void @llvm.lifetime.end.p0(i64 4, ptr nonnull %8) #6
  call void @llvm.lifetime.end.p0(i64 4, ptr nonnull %7) #6
  call void @llvm.lifetime.end.p0(i64 4, ptr nonnull %6) #6
  call void @llvm.lifetime.end.p0(i64 24, ptr nonnull %5) #6
  call void @llvm.lifetime.end.p0(i64 200, ptr nonnull %4) #6
  call void @llvm.lifetime.end.p0(i64 200, ptr nonnull %3) #6
  call void @llvm.lifetime.end.p0(i64 100, ptr nonnull %2) #6
  ret i32 %.0
}